target datalayout = "e-m:e-p270:32:32-p271:32:32-p272:64:64-i64:64-i128:128-f80:128-n8:16:32:64-S128"
target triple = "x86_64-pc-linux-gnu"

%"class.icu_77::UnicodeString" = type { %"class.icu_77::Replaceable", %"union.icu_77::UnicodeString::StackBufferOrFields" }
%"class.icu_77::Replaceable" = type { %"class.icu_77::UObject" }
%"class.icu_77::UObject" = type { ptr }
%"union.icu_77::UnicodeString::StackBufferOrFields" = type { %struct.anon.0, [32 x i8] }
%struct.anon.0 = type { i16, i32, i32, ptr }
%"class.icu_77::DateIntervalFormat" = type <{ %"class.icu_77::Format", ptr, ptr, ptr, ptr, %"class.icu_77::Locale", %"class.icu_77::UnicodeString", [9 x %"struct.icu_77::DateIntervalFormat::PatternInfo"], ptr, ptr, ptr, i32, [4 x i8] }>
%"class.icu_77::Format" = type { %"class.icu_77::UObject", ptr, ptr }
%"class.icu_77::Locale" = type <{ %"class.icu_77::UObject", [12 x i8], [6 x i8], [4 x i8], [2 x i8], i32, [4 x i8], ptr, [157 x i8], [3 x i8], ptr, i8, [7 x i8] }>
%"struct.icu_77::DateIntervalFormat::PatternInfo" = type <{ %"class.icu_77::UnicodeString", %"class.icu_77::UnicodeString", i8, [7 x i8] }>
%struct.anon = type { i16, [27 x i16] }
%"class.icu_77::SimpleFormatter" = type { [8 x i8], %"class.icu_77::UnicodeString" }

@_ZTVN6icu_777UObjectE = available_externally unnamed_addr constant { [5 x ptr] } { [5 x ptr] [ptr null, ptr @_ZTIN6icu_777UObjectE, ptr @_ZN6icu_777UObjectD1Ev, ptr @_ZN6icu_777UObjectD0Ev, ptr @_ZNK6icu_777UObject17getDynamicClassIDEv] }, align 8

; Function Attrs: inlinehint mustprogress nounwind uwtable
define linkonce_odr void @_ZN6icu_777UObjectC2Ev(ptr noundef nonnull align 8 dereferenceable(8) %0) unnamed_addr #2 comdat align 2 {
  %2 = alloca ptr, align 8
  store ptr %0, ptr %2, align 8, !tbaa !87
  %3 = load ptr, ptr %2, align 8
  store ptr getelementptr inbounds inrange(-16, 24) ({ [5 x ptr] }, ptr @_ZTVN6icu_777UObjectE, i32 0, i32 0, i32 2), ptr %3, align 8, !tbaa !27
  ret void
}

; Function Attrs: inlinehint mustprogress nounwind uwtable
define linkonce_odr noundef i32 @_ZNK6icu_7713UnicodeString14getShortLengthEv(ptr noundef nonnull align 8 dereferenceable(64) %0) #2 comdat align 2 {
  %2 = alloca ptr, align 8
  store ptr %0, ptr %2, align 8, !tbaa !41
  %3 = load ptr, ptr %2, align 8
  %4 = getelementptr inbounds nuw %"class.icu_77::UnicodeString", ptr %3, i32 0, i32 1
  %5 = getelementptr inbounds nuw %struct.anon.0, ptr %4, i32 0, i32 0
  %6 = load i16, ptr %5, align 8, !tbaa !65
  %7 = sext i16 %6 to i32
  %8 = ashr i32 %7, 5
  ret i32 %8
}

; Function Attrs: inlinehint mustprogress nounwind uwtable
define linkonce_odr noundef signext i8 @_ZNK6icu_7713UnicodeString14hasShortLengthEv(ptr noundef nonnull align 8 dereferenceable(64) %0) #2 comdat align 2 {
  %2 = alloca ptr, align 8
  store ptr %0, ptr %2, align 8, !tbaa !41
  %3 = load ptr, ptr %2, align 8
  %4 = getelementptr inbounds nuw %"class.icu_77::UnicodeString", ptr %3, i32 0, i32 1
  %5 = getelementptr inbounds nuw %struct.anon.0, ptr %4, i32 0, i32 0
  %6 = load i16, ptr %5, align 8, !tbaa !65
  %7 = sext i16 %6 to i32
  %8 = icmp sge i32 %7, 0
  %9 = zext i1 %8 to i8
  ret i8 %9
}

; Function Attrs: inlinehint mustprogress nounwind uwtable
define linkonce_odr void @_ZN6icu_7711ReplaceableC2Ev(ptr noundef nonnull align 8 dereferenceable(8) %0) unnamed_addr #2 comdat align 2 {
  %2 = alloca ptr, align 8
  store ptr %0, ptr %2, align 8, !tbaa !169
  %3 = load ptr, ptr %2, align 8
  call void @_ZN6icu_777UObjectC2Ev(ptr noundef nonnull align 8 dereferenceable(8) %3) #12
  store ptr getelementptr inbounds inrange(-16, 88) ({ [13 x ptr] }, ptr @_ZTVN6icu_7711ReplaceableE, i32 0, i32 0, i32 2), ptr %3, align 8, !tbaa !27
  ret void
}

; Function Attrs: inlinehint mustprogress uwtable
define linkonce_odr noundef i32 @_ZNK6icu_7713UnicodeString6lengthEv(ptr noundef nonnull align 8 dereferenceable(64) %0) #3 comdat align 2 {
  %2 = alloca ptr, align 8
  store ptr %0, ptr %2, align 8, !tbaa !41
  %3 = load ptr, ptr %2, align 8
  %4 = call noundef signext i8 @_ZNK6icu_7713UnicodeString14hasShortLengthEv(ptr noundef nonnull align 8 dereferenceable(64) %3)
  %5 = icmp ne i8 %4, 0
  br i1 %5, label %6, label %8

6:                                                ; preds = %1
  %7 = call noundef i32 @_ZNK6icu_7713UnicodeString14getShortLengthEv(ptr noundef nonnull align 8 dereferenceable(64) %3)
  br label %12

8:                                                ; preds = %1
  %9 = getelementptr inbounds nuw %"class.icu_77::UnicodeString", ptr %3, i32 0, i32 1
  %10 = getelementptr inbounds nuw %struct.anon.0, ptr %9, i32 0, i32 1
  %11 = load i32, ptr %10, align 4, !tbaa !65
  br label %12

12:                                               ; preds = %8, %6
  %13 = phi i32 [ %7, %6 ], [ %11, %8 ]
  ret i32 %13
}

; Function Attrs: mustprogress uwtable
define linkonce_odr void @_ZN6icu_7715SimpleFormatterC2ERKNS_13UnicodeStringEiiR10UErrorCode(ptr noundef nonnull align 8 dereferenceable(72) %0, ptr noundef nonnull align 8 dereferenceable(64) %1, i32 noundef %2, i32 noundef %3, ptr noundef nonnull align 4 dereferenceable(4) %4) unnamed_addr #1 comdat align 2 personality ptr @__gxx_personality_v0 {
  %6 = alloca ptr, align 8
  %7 = alloca ptr, align 8
  %8 = alloca i32, align 4
  %9 = alloca i32, align 4
  %10 = alloca ptr, align 8
  %11 = alloca ptr, align 8
  %12 = alloca i32, align 4
  store ptr %0, ptr %6, align 8, !tbaa !166
  store ptr %1, ptr %7, align 8, !tbaa !41
  store i32 %2, ptr %8, align 4, !tbaa !14
  store i32 %3, ptr %9, align 4, !tbaa !14
  store ptr %4, ptr %10, align 8, !tbaa !22
  %13 = load ptr, ptr %6, align 8
  %14 = getelementptr inbounds nuw %"class.icu_77::SimpleFormatter", ptr %13, i32 0, i32 1
  call void @_ZN6icu_7713UnicodeStringC2Ev(ptr noundef nonnull align 8 dereferenceable(64) %14)
  %15 = load ptr, ptr %7, align 8, !tbaa !41
  %16 = load i32, ptr %8, align 4, !tbaa !14
  %17 = load i32, ptr %9, align 4, !tbaa !14
  %18 = load ptr, ptr %10, align 8, !tbaa !22
  %19 = invoke noundef signext i8 @_ZN6icu_7715SimpleFormatter27applyPatternMinMaxArgumentsERKNS_13UnicodeStringEiiR10UErrorCode(ptr noundef nonnull align 8 dereferenceable(72) %13, ptr noundef nonnull align 8 dereferenceable(64) %15, i32 noundef %16, i32 noundef %17, ptr noundef nonnull align 4 dereferenceable(4) %18)
          to label %20 unwind label %21

20:                                               ; preds = %5
  ret void

21:                                               ; preds = %5
  %22 = landingpad { ptr, i32 }
          cleanup
  %23 = extractvalue { ptr, i32 } %22, 0
  store ptr %23, ptr %11, align 8
  %24 = extractvalue { ptr, i32 } %22, 1
  store i32 %24, ptr %12, align 4
  call void @_ZN6icu_7713UnicodeStringD1Ev(ptr noundef nonnull align 8 dereferenceable(64) %14) #12
  br label %25

25:                                               ; preds = %21
  %26 = load ptr, ptr %11, align 8
  %27 = load i32, ptr %12, align 4
  %28 = insertvalue { ptr, i32 } poison, ptr %26, 0
  %29 = insertvalue { ptr, i32 } %28, i32 %27, 1
  resume { ptr, i32 } %29
}

; Function Attrs: inlinehint mustprogress uwtable
define linkonce_odr void @_ZN6icu_7713UnicodeStringC2Ev(ptr noundef nonnull align 8 dereferenceable(64) %0) unnamed_addr #3 comdat align 2 {
  %2 = alloca ptr, align 8
  store ptr %0, ptr %2, align 8, !tbaa !41
  %3 = load ptr, ptr %2, align 8
  call void @_ZN6icu_7711ReplaceableC2Ev(ptr noundef nonnull align 8 dereferenceable(8) %3)
  store ptr getelementptr inbounds inrange(-16, 88) ({ [13 x ptr] }, ptr @_ZTVN6icu_7713UnicodeStringE, i32 0, i32 0, i32 2), ptr %3, align 8, !tbaa !27
  %4 = getelementptr inbounds nuw %"class.icu_77::UnicodeString", ptr %3, i32 0, i32 1
  %5 = getelementptr inbounds nuw %struct.anon, ptr %4, i32 0, i32 0
  store i16 2, ptr %5, align 8, !tbaa !65
  ret void
}

; Function Attrs: inlinehint mustprogress uwtable
define linkonce_odr noundef nonnull align 8 dereferenceable(64) ptr @_ZN6icu_7713UnicodeString6appendERKS0_(ptr noundef nonnull align 8 dereferenceable(64) %0, ptr noundef nonnull align 8 dereferenceable(64) %1) #3 comdat align 2 {
  %3 = alloca ptr, align 8
  %4 = alloca ptr, align 8
  store ptr %0, ptr %3, align 8, !tbaa !41
  store ptr %1, ptr %4, align 8, !tbaa !41
  %5 = load ptr, ptr %3, align 8
  %6 = load ptr, ptr %4, align 8, !tbaa !41
  %7 = load ptr, ptr %4, align 8, !tbaa !41
  %8 = call noundef i32 @_ZNK6icu_7713UnicodeString6lengthEv(ptr noundef nonnull align 8 dereferenceable(64) %7)
  %9 = call noundef nonnull align 8 dereferenceable(64) ptr @_ZN6icu_7713UnicodeString8doAppendERKS0_ii(ptr noundef nonnull align 8 dereferenceable(64) %5, ptr noundef nonnull align 8 dereferenceable(64) %6, i32 noundef 0, i32 noundef %8)
  ret ptr %9
}

; Function Attrs: inlinehint mustprogress nounwind uwtable
define linkonce_odr noundef signext i8 @_ZNK6icu_7713UnicodeString7isEmptyEv(ptr noundef nonnull align 8 dereferenceable(64) %0) #2 comdat align 2 {
  %2 = alloca ptr, align 8
  store ptr %0, ptr %2, align 8, !tbaa !41
  %3 = load ptr, ptr %2, align 8
  %4 = getelementptr inbounds nuw %"class.icu_77::UnicodeString", ptr %3, i32 0, i32 1
  %5 = getelementptr inbounds nuw %struct.anon.0, ptr %4, i32 0, i32 0
  %6 = load i16, ptr %5, align 8, !tbaa !65
  %7 = sext i16 %6 to i32
  %8 = ashr i32 %7, 5
  %9 = icmp eq i32 %8, 0
  %10 = zext i1 %9 to i8
  ret i8 %10
}

; Function Attrs: inlinehint mustprogress nounwind uwtable
define internal noundef signext i8 @_ZL9U_FAILURE10UErrorCode(i32 noundef %0) #2 {
  %2 = alloca i32, align 4
  store i32 %0, ptr %2, align 4, !tbaa !15
  %3 = load i32, ptr %2, align 4, !tbaa !15
  %4 = icmp sgt i32 %3, 0
  %5 = zext i1 %4 to i8
  ret i8 %5
}

; Function Attrs: mustprogress uwtable
define void @_ZN6icu_7718DateIntervalFormat29concatSingleDate2TimeIntervalERNS_13UnicodeStringERKS1_19UCalendarDateFieldsR10UErrorCode(ptr noundef nonnull align 8 dereferenceable(1596) %0, ptr noundef nonnull align 8 dereferenceable(64) %1, ptr noundef nonnull align 8 dereferenceable(64) %2, i32 noundef %3, ptr noundef nonnull align 4 dereferenceable(4) %4) #1 align 2 personality ptr @__gxx_personality_v0 {
  %6 = alloca ptr, align 8
  %7 = alloca ptr, align 8
  %8 = alloca ptr, align 8
  %9 = alloca i32, align 4
  %10 = alloca ptr, align 8
  %11 = alloca i32, align 4
  %12 = alloca i32, align 4
  %13 = alloca ptr, align 8
  %14 = alloca %"class.icu_77::UnicodeString", align 8
  %15 = alloca ptr, align 8
  %16 = alloca i32, align 4
  %17 = alloca %"class.icu_77::UnicodeString", align 8
  %18 = alloca %"class.icu_77::SimpleFormatter", align 8
  store ptr %0, ptr %6, align 8, !tbaa !39
  store ptr %1, ptr %7, align 8, !tbaa !41
  store ptr %2, ptr %8, align 8, !tbaa !41
  store i32 %3, ptr %9, align 4, !tbaa !110
  store ptr %4, ptr %10, align 8, !tbaa !22
  %19 = load ptr, ptr %6, align 8
  call void @llvm.lifetime.start.p0(i64 4, ptr %11) #12
  %20 = load i32, ptr %9, align 4, !tbaa !110
  %21 = load ptr, ptr %10, align 8, !tbaa !22
  %22 = call noundef i32 @_ZN6icu_7716DateIntervalInfo28calendarFieldToIntervalIndexE19UCalendarDateFieldsR10UErrorCode(i32 noundef %20, ptr noundef nonnull align 4 dereferenceable(4) %21)
  store i32 %22, ptr %11, align 4, !tbaa !14
  %23 = load ptr, ptr %10, align 8, !tbaa !22
  %24 = load i32, ptr %23, align 4, !tbaa !15
  %25 = call noundef signext i8 @_ZL9U_FAILURE10UErrorCode(i32 noundef %24)
  %26 = icmp ne i8 %25, 0
  br i1 %26, label %27, label %28

27:                                               ; preds = %5
  store i32 1, ptr %12, align 4
  br label %93

28:                                               ; preds = %5
  call void @llvm.lifetime.start.p0(i64 8, ptr %13) #12
  %29 = getelementptr inbounds nuw %"class.icu_77::DateIntervalFormat", ptr %19, i32 0, i32 7
  %30 = load i32, ptr %11, align 4, !tbaa !14
  %31 = sext i32 %30 to i64
  %32 = getelementptr inbounds [9 x %"struct.icu_77::DateIntervalFormat::PatternInfo"], ptr %29, i64 0, i64 %31
  store ptr %32, ptr %13, align 8, !tbaa !66
  %33 = load ptr, ptr %13, align 8, !tbaa !66
  %34 = getelementptr inbounds nuw %"struct.icu_77::DateIntervalFormat::PatternInfo", ptr %33, i32 0, i32 0
  %35 = call noundef signext i8 @_ZNK6icu_7713UnicodeString7isEmptyEv(ptr noundef nonnull align 8 dereferenceable(64) %34)
  %36 = icmp ne i8 %35, 0
  br i1 %36, label %91, label %37

37:                                               ; preds = %28
  call void @llvm.lifetime.start.p0(i64 64, ptr %14) #12
  %38 = load ptr, ptr %13, align 8, !tbaa !66
  %39 = getelementptr inbounds nuw %"struct.icu_77::DateIntervalFormat::PatternInfo", ptr %38, i32 0, i32 0
  call void @_ZN6icu_7713UnicodeStringC1ERKS0_(ptr noundef nonnull align 8 dereferenceable(64) %14, ptr noundef nonnull align 8 dereferenceable(64) %39)
  %40 = load ptr, ptr %13, align 8, !tbaa !66
  %41 = getelementptr inbounds nuw %"struct.icu_77::DateIntervalFormat::PatternInfo", ptr %40, i32 0, i32 1
  %42 = invoke noundef nonnull align 8 dereferenceable(64) ptr @_ZN6icu_7713UnicodeString6appendERKS0_(ptr noundef nonnull align 8 dereferenceable(64) %14, ptr noundef nonnull align 8 dereferenceable(64) %41)
          to label %43 unwind label %58

43:                                               ; preds = %37
  call void @llvm.lifetime.start.p0(i64 64, ptr %17) #12
  invoke void @_ZN6icu_7713UnicodeStringC2Ev(ptr noundef nonnull align 8 dereferenceable(64) %17)
          to label %44 unwind label %62

44:                                               ; preds = %43
  call void @llvm.lifetime.start.p0(i64 72, ptr %18) #12
  %45 = load ptr, ptr %7, align 8, !tbaa !41
  %46 = load ptr, ptr %10, align 8, !tbaa !22
  invoke void @_ZN6icu_7715SimpleFormatterC2ERKNS_13UnicodeStringEiiR10UErrorCode(ptr noundef nonnull align 8 dereferenceable(72) %18, ptr noundef nonnull align 8 dereferenceable(64) %45, i32 noundef 2, i32 noundef 2, ptr noundef nonnull align 4 dereferenceable(4) %46)
          to label %47 unwind label %66

47:                                               ; preds = %44
  %48 = load ptr, ptr %8, align 8, !tbaa !41
  %49 = load ptr, ptr %10, align 8, !tbaa !22
  %50 = invoke noundef nonnull align 8 dereferenceable(64) ptr @_ZNK6icu_7715SimpleFormatter6formatERKNS_13UnicodeStringES3_RS1_R10UErrorCode(ptr noundef nonnull align 8 dereferenceable(72) %18, ptr noundef nonnull align 8 dereferenceable(64) %14, ptr noundef nonnull align 8 dereferenceable(64) %48, ptr noundef nonnull align 8 dereferenceable(64) %17, ptr noundef nonnull align 4 dereferenceable(4) %49)
          to label %51 unwind label %70

51:                                               ; preds = %47
  call void @_ZN6icu_7715SimpleFormatterD1Ev(ptr noundef nonnull align 8 dereferenceable(72) %18) #12
  call void @llvm.lifetime.end.p0(i64 72, ptr %18) #12
  %52 = load ptr, ptr %10, align 8, !tbaa !22
  %53 = load i32, ptr %52, align 4, !tbaa !15
  %54 = invoke noundef signext i8 @_ZL9U_FAILURE10UErrorCode(i32 noundef %53)
          to label %55 unwind label %75

55:                                               ; preds = %51
  %56 = icmp ne i8 %54, 0
  br i1 %56, label %57, label %79

57:                                               ; preds = %55
  store i32 1, ptr %12, align 4
  br label %85

58:                                               ; preds = %37
  %59 = landingpad { ptr, i32 }
          cleanup
  %60 = extractvalue { ptr, i32 } %59, 0
  store ptr %60, ptr %15, align 8
  %61 = extractvalue { ptr, i32 } %59, 1
  store i32 %61, ptr %16, align 4
  br label %90

62:                                               ; preds = %43
  %63 = landingpad { ptr, i32 }
          cleanup
  %64 = extractvalue { ptr, i32 } %63, 0
  store ptr %64, ptr %15, align 8
  %65 = extractvalue { ptr, i32 } %63, 1
  store i32 %65, ptr %16, align 4
  br label %89

66:                                               ; preds = %44
  %67 = landingpad { ptr, i32 }
          cleanup
  %68 = extractvalue { ptr, i32 } %67, 0
  store ptr %68, ptr %15, align 8
  %69 = extractvalue { ptr, i32 } %67, 1
  store i32 %69, ptr %16, align 4
  br label %74

70:                                               ; preds = %47
  %71 = landingpad { ptr, i32 }
          cleanup
  %72 = extractvalue { ptr, i32 } %71, 0
  store ptr %72, ptr %15, align 8
  %73 = extractvalue { ptr, i32 } %71, 1
  store i32 %73, ptr %16, align 4
  call void @_ZN6icu_7715SimpleFormatterD1Ev(ptr noundef nonnull align 8 dereferenceable(72) %18) #12
  br label %74

74:                                               ; preds = %70, %66
  call void @llvm.lifetime.end.p0(i64 72, ptr %18) #12
  br label %88

75:                                               ; preds = %79, %51
  %76 = landingpad { ptr, i32 }
          cleanup
  %77 = extractvalue { ptr, i32 } %76, 0
  store ptr %77, ptr %15, align 8
  %78 = extractvalue { ptr, i32 } %76, 1
  store i32 %78, ptr %16, align 4
  br label %88

79:                                               ; preds = %55
  %80 = load i32, ptr %9, align 4, !tbaa !110
  %81 = load ptr, ptr %13, align 8, !tbaa !66
  %82 = getelementptr inbounds nuw %"struct.icu_77::DateIntervalFormat::PatternInfo", ptr %81, i32 0, i32 2
  %83 = load i8, ptr %82, align 8, !tbaa !76
  invoke void @_ZN6icu_7718DateIntervalFormat18setIntervalPatternE19UCalendarDateFieldsRKNS_13UnicodeStringEa(ptr noundef nonnull align 8 dereferenceable(1596) %19, i32 noundef %80, ptr noundef nonnull align 8 dereferenceable(64) %17, i8 noundef signext %83)
          to label %84 unwind label %75

84:                                               ; preds = %79
  store i32 0, ptr %12, align 4
  br label %85

85:                                               ; preds = %84, %57
  call void @_ZN6icu_7713UnicodeStringD1Ev(ptr noundef nonnull align 8 dereferenceable(64) %17) #12
  call void @llvm.lifetime.end.p0(i64 64, ptr %17) #12
  call void @_ZN6icu_7713UnicodeStringD1Ev(ptr noundef nonnull align 8 dereferenceable(64) %14) #12
  call void @llvm.lifetime.end.p0(i64 64, ptr %14) #12
  %86 = load i32, ptr %12, align 4
  switch i32 %86, label %92 [
    i32 0, label %87
  ]

87:                                               ; preds = %85
  br label %91

88:                                               ; preds = %75, %74
  call void @_ZN6icu_7713UnicodeStringD1Ev(ptr noundef nonnull align 8 dereferenceable(64) %17) #12
  br label %89

89:                                               ; preds = %88, %62
  call void @llvm.lifetime.end.p0(i64 64, ptr %17) #12
  br label %90

90:                                               ; preds = %89, %58
  call void @_ZN6icu_7713UnicodeStringD1Ev(ptr noundef nonnull align 8 dereferenceable(64) %14) #12
  call void @llvm.lifetime.end.p0(i64 64, ptr %14) #12
  call void @llvm.lifetime.end.p0(i64 8, ptr %13) #12
  call void @llvm.lifetime.end.p0(i64 4, ptr %11) #12
  br label %96

91:                                               ; preds = %87, %28
  store i32 0, ptr %12, align 4
  br label %92

92:                                               ; preds = %91, %85
  call void @llvm.lifetime.end.p0(i64 8, ptr %13) #12
  br label %93

93:                                               ; preds = %92, %27
  call void @llvm.lifetime.end.p0(i64 4, ptr %11) #12
  %94 = load i32, ptr %12, align 4
  switch i32 %94, label %101 [
    i32 0, label %95
    i32 1, label %95
  ]

95:                                               ; preds = %93, %93
  ret void

96:                                               ; preds = %90
  %97 = load ptr, ptr %15, align 8
  %98 = load i32, ptr %16, align 4
  %99 = insertvalue { ptr, i32 } poison, ptr %97, 0
  %100 = insertvalue { ptr, i32 } %99, i32 %98, 1
  resume { ptr, i32 } %100

101:                                              ; preds = %93
  unreachable
}