; Function Attrs: mustprogress uwtable
define void @_ZN6icu_7718DateIntervalFormat29concatSingleDate2TimeIntervalERNS_13UnicodeStringERKS1_19UCalendarDateFieldsR10UErrorCode(ptr noundef nonnull align 8 dereferenceable(1596) %0, ptr noundef nonnull align 8 dereferenceable(64) %1, ptr noundef nonnull align 8 dereferenceable(64) %2, i32 noundef %3, ptr noundef nonnull align 4 dereferenceable(4) %4) local_unnamed_addr #1 align 2 personality ptr @__gxx_personality_v0 {
  %6 = alloca %"class.icu_77::UnicodeString", align 8
  %7 = alloca %"class.icu_77::UnicodeString", align 8
  %8 = alloca %"class.icu_77::SimpleFormatter", align 8
  %9 = tail call noundef i32 @_ZN6icu_7716DateIntervalInfo28calendarFieldToIntervalIndexE19UCalendarDateFieldsR10UErrorCode(i32 noundef %3, ptr noundef nonnull align 4 dereferenceable(4) %4)
  %10 = load i32, ptr %4, align 4, !tbaa !13
  %11 = icmp slt i32 %10, 1
  br i1 %11, label %12, label %52

12:                                               ; preds = %5
  %13 = getelementptr inbounds nuw i8, ptr %0, i64 344
  %14 = sext i32 %9 to i64
  %15 = getelementptr inbounds [9 x %"struct.icu_77::DateIntervalFormat::PatternInfo"], ptr %13, i64 0, i64 %14
  %16 = getelementptr inbounds nuw i8, ptr %15, i64 8
  %17 = load i16, ptr %16, align 8, !tbaa !25
  %18 = icmp ugt i16 %17, 31
  br i1 %18, label %19, label %52

19:                                               ; preds = %12
  call void @llvm.lifetime.start.p0(i64 64, ptr nonnull %6) #19
  call void @_ZN6icu_7713UnicodeStringC1ERKS0_(ptr noundef nonnull align 8 dereferenceable(64) %6, ptr noundef nonnull align 8 dereferenceable(64) %15)
  %20 = getelementptr inbounds nuw i8, ptr %15, i64 64
  %21 = getelementptr inbounds nuw i8, ptr %15, i64 72
  %22 = load i16, ptr %21, align 8, !tbaa !25
  %23 = icmp slt i16 %22, 0
  %24 = ashr i16 %22, 5
  %25 = sext i16 %24 to i32
  %26 = getelementptr inbounds nuw i8, ptr %15, i64 76
  %27 = load i32, ptr %26, align 4
  %28 = select i1 %23, i32 %27, i32 %25
  %29 = invoke noundef nonnull align 8 dereferenceable(64) ptr @_ZN6icu_7713UnicodeString8doAppendERKS0_ii(ptr noundef nonnull align 8 dereferenceable(64) %6, ptr noundef nonnull align 8 dereferenceable(64) %20, i32 noundef 0, i32 noundef %28)
          to label %30 unwind label %41

30:                                               ; preds = %19
  call void @llvm.lifetime.start.p0(i64 64, ptr nonnull %7) #19
  store ptr getelementptr inbounds nuw inrange(-16, 88) (i8, ptr @_ZTVN6icu_7713UnicodeStringE, i64 16), ptr %7, align 8, !tbaa !15
  %31 = getelementptr inbounds nuw i8, ptr %7, i64 8
  store i16 2, ptr %31, align 8, !tbaa !25
  call void @llvm.lifetime.start.p0(i64 72, ptr nonnull %8) #19
  %32 = getelementptr inbounds nuw i8, ptr %8, i64 8
  store ptr getelementptr inbounds nuw inrange(-16, 88) (i8, ptr @_ZTVN6icu_7713UnicodeStringE, i64 16), ptr %32, align 8, !tbaa !15
  %33 = getelementptr inbounds nuw i8, ptr %8, i64 16
  store i16 2, ptr %33, align 8, !tbaa !25
  %34 = invoke noundef signext i8 @_ZN6icu_7715SimpleFormatter27applyPatternMinMaxArgumentsERKNS_13UnicodeStringEiiR10UErrorCode(ptr noundef nonnull align 8 dereferenceable(72) %8, ptr noundef nonnull align 8 dereferenceable(64) %1, i32 noundef 2, i32 noundef 2, ptr noundef nonnull align 4 dereferenceable(4) %4)
          to label %_ZN6icu_7715SimpleFormatterC2ERKNS_13UnicodeStringEiiR10UErrorCode.exit unwind label %35

35:                                               ; preds = %30
  %36 = landingpad { ptr, i32 }
          cleanup
  call void @_ZN6icu_7713UnicodeStringD1Ev(ptr noundef nonnull align 8 dereferenceable(64) %32) #19
  br label %.body

_ZN6icu_7715SimpleFormatterC2ERKNS_13UnicodeStringEiiR10UErrorCode.exit: ; preds = %30
  %37 = invoke noundef nonnull align 8 dereferenceable(64) ptr @_ZNK6icu_7715SimpleFormatter6formatERKNS_13UnicodeStringES3_RS1_R10UErrorCode(ptr noundef nonnull align 8 dereferenceable(72) %8, ptr noundef nonnull align 8 dereferenceable(64) %6, ptr noundef nonnull align 8 dereferenceable(64) %2, ptr noundef nonnull align 8 dereferenceable(64) %7, ptr noundef nonnull align 4 dereferenceable(4) %4)
          to label %38 unwind label %43

38:                                               ; preds = %_ZN6icu_7715SimpleFormatterC2ERKNS_13UnicodeStringEiiR10UErrorCode.exit
  call void @_ZN6icu_7715SimpleFormatterD1Ev(ptr noundef nonnull align 8 dereferenceable(72) %8) #19
  call void @llvm.lifetime.end.p0(i64 72, ptr nonnull %8) #19
  %39 = load i32, ptr %4, align 4, !tbaa !13
  %40 = icmp slt i32 %39, 1
  br i1 %40, label %47, label %.sink.split

41:                                               ; preds = %19
  %42 = landingpad { ptr, i32 }
          cleanup
  br label %51

43:                                               ; preds = %_ZN6icu_7715SimpleFormatterC2ERKNS_13UnicodeStringEiiR10UErrorCode.exit
  %44 = landingpad { ptr, i32 }
          cleanup
  call void @_ZN6icu_7715SimpleFormatterD1Ev(ptr noundef nonnull align 8 dereferenceable(72) %8) #19
  br label %.body

.body:                                            ; preds = %35, %43
  %.pn = phi { ptr, i32 } [ %44, %43 ], [ %36, %35 ]
  call void @llvm.lifetime.end.p0(i64 72, ptr nonnull %8) #19
  br label %50

45:                                               ; preds = %47
  %46 = landingpad { ptr, i32 }
          cleanup
  br label %50

47:                                               ; preds = %38
  %48 = getelementptr inbounds nuw i8, ptr %15, i64 128
  %49 = load i8, ptr %48, align 8, !tbaa !55
  invoke void @_ZN6icu_7718DateIntervalFormat18setIntervalPatternE19UCalendarDateFieldsRKNS_13UnicodeStringEa(ptr noundef nonnull align 8 dereferenceable(1596) %0, i32 noundef %3, ptr noundef nonnull align 8 dereferenceable(64) %7, i8 noundef signext %49)
          to label %.sink.split unwind label %45

50:                                               ; preds = %45, %.body
  %.pn25 = phi { ptr, i32 } [ %46, %45 ], [ %.pn, %.body ]
  call void @_ZN6icu_7713UnicodeStringD1Ev(ptr noundef nonnull align 8 dereferenceable(64) %7) #19
  call void @llvm.lifetime.end.p0(i64 64, ptr nonnull %7) #19
  br label %51

51:                                               ; preds = %50, %41
  %.pn25.pn.pn = phi { ptr, i32 } [ %.pn25, %50 ], [ %42, %41 ]
  call void @_ZN6icu_7713UnicodeStringD1Ev(ptr noundef nonnull align 8 dereferenceable(64) %6) #19
  call void @llvm.lifetime.end.p0(i64 64, ptr nonnull %6) #19
  resume { ptr, i32 } %.pn25.pn.pn

.sink.split:                                      ; preds = %38, %47
  call void @_ZN6icu_7713UnicodeStringD1Ev(ptr noundef nonnull align 8 dereferenceable(64) %7) #19
  call void @llvm.lifetime.end.p0(i64 64, ptr nonnull %7) #19
  call void @_ZN6icu_7713UnicodeStringD1Ev(ptr noundef nonnull align 8 dereferenceable(64) %6) #19
  call void @llvm.lifetime.end.p0(i64 64, ptr nonnull %6) #19
  br label %52

52:                                               ; preds = %.sink.split, %12, %5
  ret void
}